target datalayout = "e-m:e-p270:32:32-p271:32:32-p272:64:64-i64:64-i128:128-f80:128-n8:16:32:64-S128"
target triple = "x86_64-pc-linux-gnu"

%struct.dictType = type { ptr, ptr, ptr, ptr, ptr, ptr, ptr, ptr, ptr, ptr, ptr, i8, ptr, ptr, ptr }
%struct.dict = type { ptr, [2 x ptr], [2 x i64], i64, i16, [2 x i8], i16, [0 x ptr] }
%struct.dictEntry = type { ptr, %union.anon, ptr }
%union.anon = type { ptr }

@.str.1 = private unnamed_addr constant [7 x i8] c"dict.c\00", align 1
@.str.9 = private unnamed_addr constant [18 x i8] c"entryHasValue(de)\00", align 1

; Function Attrs: inlinehint nounwind uwtable
define internal i32 @entryIsNormal(ptr noundef %0) #11 {
  %2 = alloca ptr, align 8
  store ptr %0, ptr %2, align 8, !tbaa !36
  %3 = load ptr, ptr %2, align 8, !tbaa !36
  %4 = ptrtoint ptr %3 to i64
  %5 = and i64 %4, 7
  %6 = icmp eq i64 %5, 0
  %7 = zext i1 %6 to i32
  ret i32 %7
}

; Function Attrs: inlinehint nounwind uwtable
define internal i32 @entryHasValue(ptr noundef %0) #11 {
  %2 = alloca ptr, align 8
  store ptr %0, ptr %2, align 8, !tbaa !36
  %3 = load ptr, ptr %2, align 8, !tbaa !36
  %4 = call i32 @entryIsNormal(ptr noundef %3)
  ret i32 %4
}

; Function Attrs: nounwind uwtable
define dso_local void @dictSetVal(ptr noundef %0, ptr noundef %1, ptr noundef %2) #0 {
  %4 = alloca ptr, align 8
  %5 = alloca ptr, align 8
  %6 = alloca ptr, align 8
  store ptr %0, ptr %4, align 8, !tbaa !18
  store ptr %1, ptr %5, align 8, !tbaa !36
  store ptr %2, ptr %6, align 8, !tbaa !10
  %7 = load ptr, ptr %5, align 8, !tbaa !36
  %8 = call i32 @entryHasValue(ptr noundef %7)
  %9 = icmp ne i32 %8, 0
  %10 = xor i1 %9, true
  %11 = xor i1 %10, true
  %12 = zext i1 %11 to i32
  %13 = sext i32 %12 to i64
  %14 = call i64 @llvm.expect.i64(i64 %13, i64 1)
  %15 = icmp ne i64 %14, 0
  br i1 %15, label %16, label %17

16:                                               ; preds = %3
  br label %19

17:                                               ; preds = %3
  call void @_serverAssert(ptr noundef @.str.9, ptr noundef @.str.1, i32 noundef 883)
  call void @abort() #17
  unreachable

18:                                               ; No predecessors!
  br label %19

19:                                               ; preds = %18, %16
  %20 = load ptr, ptr %4, align 8, !tbaa !18
  %21 = getelementptr inbounds nuw %struct.dict, ptr %20, i32 0, i32 0
  %22 = load ptr, ptr %21, align 8, !tbaa !13
  %23 = getelementptr inbounds nuw %struct.dictType, ptr %22, i32 0, i32 2
  %24 = load ptr, ptr %23, align 8, !tbaa !48
  %25 = icmp ne ptr %24, null
  br i1 %25, label %26, label %35

26:                                               ; preds = %19
  %27 = load ptr, ptr %4, align 8, !tbaa !18
  %28 = getelementptr inbounds nuw %struct.dict, ptr %27, i32 0, i32 0
  %29 = load ptr, ptr %28, align 8, !tbaa !13
  %30 = getelementptr inbounds nuw %struct.dictType, ptr %29, i32 0, i32 2
  %31 = load ptr, ptr %30, align 8, !tbaa !48
  %32 = load ptr, ptr %4, align 8, !tbaa !18
  %33 = load ptr, ptr %6, align 8, !tbaa !10
  %34 = call ptr %31(ptr noundef %32, ptr noundef %33)
  br label %37

35:                                               ; preds = %19
  %36 = load ptr, ptr %6, align 8, !tbaa !10
  br label %37

37:                                               ; preds = %35, %26
  %38 = phi ptr [ %34, %26 ], [ %36, %35 ]
  %39 = load ptr, ptr %5, align 8, !tbaa !36
  %40 = getelementptr inbounds nuw %struct.dictEntry, ptr %39, i32 0, i32 1
  store ptr %38, ptr %40, align 8, !tbaa !25
  ret void
}