; Function Attrs: nounwind uwtable
define dso_local void @dictSetVal(ptr noundef %0, ptr noundef %1, ptr noundef %2) local_unnamed_addr #3 {
  %4 = ptrtoint ptr %1 to i64
  %5 = and i64 %4, 7
  %.not = icmp eq i64 %5, 0
  br i1 %.not, label %7, label %6, !prof !25

6:                                                ; preds = %3
  tail call void @_serverAssert(ptr noundef nonnull @.str.9, ptr noundef nonnull @.str.1, i32 noundef 883) #25
  tail call void @abort() #27
  unreachable

7:                                                ; preds = %3
  %8 = load ptr, ptr %0, align 8, !tbaa !16
  %9 = getelementptr inbounds nuw i8, ptr %8, i64 16
  %10 = load ptr, ptr %9, align 8, !tbaa !50
  %.not7 = icmp eq ptr %10, null
  br i1 %.not7, label %13, label %11

11:                                               ; preds = %7
  %12 = tail call ptr %10(ptr noundef nonnull %0, ptr noundef %2) #25
  br label %13

13:                                               ; preds = %7, %11
  %14 = phi ptr [ %12, %11 ], [ %2, %7 ]
  %15 = getelementptr inbounds nuw i8, ptr %1, i64 8
  store ptr %14, ptr %15, align 8, !tbaa !13
  ret void
}